
main:     file format elf32-littlearm

Disassembly of section .text:

00008074 <_start>:
    8074:	e1a0c00d 	mov	ip, sp
    8078:	e92dd800 	stmdb	sp!, {fp, ip, lr, pc}
    807c:	e24cb004 	sub	fp, ip, #4	; 0x4
    8080:	e59f2074 	ldr	r2, [pc, #116]	; 80fc <_start+0x88>
    8084:	e3a03007 	mov	r3, #7	; 0x7
    8088:	e5823000 	str	r3, [r2]
    808c:	e59f206c 	ldr	r2, [pc, #108]	; 8100 <_start+0x8c>
    8090:	e3a03005 	mov	r3, #5	; 0x5
    8094:	e5823000 	str	r3, [r2]
    8098:	e59f0064 	ldr	r0, [pc, #100]	; 8104 <_start+0x90>
    809c:	e59f3058 	ldr	r3, [pc, #88]	; 80fc <_start+0x88>
    80a0:	e59f2058 	ldr	r2, [pc, #88]	; 8100 <_start+0x8c>
    80a4:	e5931000 	ldr	r1, [r3]
    80a8:	e5923000 	ldr	r3, [r2]
    80ac:	e0813003 	add	r3, r1, r3
    80b0:	e5803000 	str	r3, [r0]
    80b4:	e59f004c 	ldr	r0, [pc, #76]	; 8108 <_start+0x94>
    80b8:	e59f304c 	ldr	r3, [pc, #76]	; 810c <_start+0x98>
    80bc:	e59f204c 	ldr	r2, [pc, #76]	; 8110 <_start+0x9c>
    80c0:	e5931000 	ldr	r1, [r3]
    80c4:	e5923000 	ldr	r3, [r2]
    80c8:	e0813003 	add	r3, r1, r3
    80cc:	e5803000 	str	r3, [r0]
    80d0:	e59f002c 	ldr	r0, [pc, #44]	; 8104 <_start+0x90>
    80d4:	e59f3028 	ldr	r3, [pc, #40]	; 8104 <_start+0x90>
    80d8:	e59f2028 	ldr	r2, [pc, #40]	; 8108 <_start+0x94>
    80dc:	e5931000 	ldr	r1, [r3]
    80e0:	e5923000 	ldr	r3, [r2]
    80e4:	e0813003 	add	r3, r1, r3
    80e8:	e5803000 	str	r3, [r0]
    80ec:	e59f3010 	ldr	r3, [pc, #16]	; 8104 <_start+0x90>
    80f0:	e5933000 	ldr	r3, [r3]
    80f4:	e1a00003 	mov	r0, r3
    80f8:	e91ba800 	ldmdb	fp, {fp, sp, pc}
    80fc:	00010128 	andeq	r0, r1, r8, lsr #2
    8100:	00010114 	andeq	r0, r1, r4, lsl r1
    8104:	00010120 	andeq	r0, r1, r0, lsr #2
    8108:	0001011c 	andeq	r0, r1, ip, lsl r1
    810c:	00010118 	andeq	r0, r1, r8, lsl r1
    8110:	00010124 	andeq	r0, r1, r4, lsr #2