
main:     file format elf32-littlearm

Disassembly of section .text:

00008074 <_start>:
    8074:	e1a0c00d 	mov	ip, sp
    8078:	e92dd800 	stmdb	sp!, {fp, ip, lr, pc}
    807c:	e24cb004 	sub	fp, ip, #4	; 0x4
    8080:	e3a0000c 	mov	r0, #12	; 0xc
    8084:	eb000002 	bl	8094 <fib>
    8088:	e1a03000 	mov	r3, r0
    808c:	e1a00003 	mov	r0, r3
    8090:	e91ba800 	ldmdb	fp, {fp, sp, pc}

00008094 <fib>:
    8094:	e1a0c00d 	mov	ip, sp
    8098:	e92dd810 	stmdb	sp!, {r4, fp, ip, lr, pc}
    809c:	e24cb004 	sub	fp, ip, #4	; 0x4
    80a0:	e24dd008 	sub	sp, sp, #8	; 0x8
    80a4:	e50b0014 	str	r0, [fp, -#20]
    80a8:	e51b3014 	ldr	r3, [fp, -#20]
    80ac:	e3530000 	cmp	r3, #0	; 0x0
    80b0:	1a000002 	bne	80c0 <fib+0x2c>
    80b4:	e3a03000 	mov	r3, #0	; 0x0
    80b8:	e50b3018 	str	r3, [fp, -#24]
    80bc:	ea000015 	b	8118 <fib+0x84>
    80c0:	e51b3014 	ldr	r3, [fp, -#20]
    80c4:	e3530001 	cmp	r3, #1	; 0x1
    80c8:	1a000002 	bne	80d8 <fib+0x44>
    80cc:	e3a03001 	mov	r3, #1	; 0x1
    80d0:	e50b3018 	str	r3, [fp, -#24]
    80d4:	ea00000f 	b	8118 <fib+0x84>
    80d8:	e51b3014 	ldr	r3, [fp, -#20]
    80dc:	e3530001 	cmp	r3, #1	; 0x1
    80e0:	da00000c 	ble	8118 <fib+0x84>
    80e4:	e51b3014 	ldr	r3, [fp, -#20]
    80e8:	e2433001 	sub	r3, r3, #1	; 0x1
    80ec:	e1a00003 	mov	r0, r3
    80f0:	ebffffe7 	bl	8094 <fib>
    80f4:	e1a04000 	mov	r4, r0
    80f8:	e51b3014 	ldr	r3, [fp, -#20]
    80fc:	e2433002 	sub	r3, r3, #2	; 0x2
    8100:	e1a00003 	mov	r0, r3
    8104:	ebffffe2 	bl	8094 <fib>
    8108:	e1a03000 	mov	r3, r0
    810c:	e0844003 	add	r4, r4, r3
    8110:	e50b4018 	str	r4, [fp, -#24]
    8114:	eaffffff 	b	8118 <fib+0x84>
    8118:	e51b0018 	ldr	r0, [fp, -#24]
    811c:	e91ba810 	ldmdb	fp, {r4, fp, sp, pc}