
main:     file format elf32-littlearm

Disassembly of section .text:

00008000 <_start>:
    8000:	e1a0c00d 	mov	ip, sp
    8004:	e92dd800 	stmdb	sp!, {fp, ip, lr, pc}
    8008:	e24cb004 	sub	fp, ip, #4	; 0x4
    800c:	e59f005c 	ldr	r0, [pc, #92]	; 8070 <.text+0x70>
    8010:	e59f305c 	ldr	r3, [pc, #92]	; 8074 <.text+0x74>
    8014:	e59f205c 	ldr	r2, [pc, #92]	; 8078 <.text+0x78>
    8018:	e5931000 	ldr	r1, [r3]
    801c:	e5923000 	ldr	r3, [r2]
    8020:	e0813003 	add	r3, r1, r3
    8024:	e5803000 	str	r3, [r0]
    8028:	e59f004c 	ldr	r0, [pc, #76]	; 807c <.text+0x7c>
    802c:	e59f304c 	ldr	r3, [pc, #76]	; 8080 <.text+0x80>
    8030:	e59f204c 	ldr	r2, [pc, #76]	; 8084 <.text+0x84>
    8034:	e5931000 	ldr	r1, [r3]
    8038:	e5923000 	ldr	r3, [r2]
    803c:	e0813003 	add	r3, r1, r3
    8040:	e5803000 	str	r3, [r0]
    8044:	e59f0024 	ldr	r0, [pc, #36]	; 8070 <.text+0x70>
    8048:	e59f3020 	ldr	r3, [pc, #32]	; 8070 <.text+0x70>
    804c:	e59f2028 	ldr	r2, [pc, #40]	; 807c <.text+0x7c>
    8050:	e5931000 	ldr	r1, [r3]
    8054:	e5923000 	ldr	r3, [r2]
    8058:	e0813003 	add	r3, r1, r3
    805c:	e5803000 	str	r3, [r0]
    8060:	e59f3008 	ldr	r3, [pc, #8]	; 8070 <.text+0x70>
    8064:	e5933000 	ldr	r3, [r3]
    8068:	e1a00003 	mov	r0, r3
    806c:	e89da800 	ldmia	sp, {fp, sp, pc}
    8070:	00008198 	muleq	r0, r8, r1
    8074:	00008188 	andeq	r8, r0, r8, lsl #3
    8078:	0000818c 	andeq	r8, r0, ip, lsl #3
    807c:	00008194 	muleq	r0, r4, r1
    8080:	00008190 	muleq	r0, r0, r1
    8084:	0000819c 	muleq	r0, ip, r1